; Function Attrs: mustprogress uwtable
define hidden void @_ZN6google8protobuf8compiler4java17ClassNameResolver20GetKotlinFactoryNameB5cxx11EPKNS0_10DescriptorE(ptr noalias sret(%"class.std::__cxx11::basic_string") align 8 %agg.result, ptr noundef nonnull readnone align 8 captures(none) dereferenceable(112) %this, ptr noundef readonly captures(none) %descriptor) local_unnamed_addr #3 align 2 personality ptr @__gxx_personality_v0 {
entry:
  %name = alloca %"class.std::__cxx11::basic_string", align 8
  %ref.tmp = alloca %"class.absl::lts_20230802::AlphaNum", align 8
  %ref.tmp7 = alloca %"class.absl::lts_20230802::AlphaNum", align 8
  %all_names_.i = getelementptr inbounds nuw i8, ptr %descriptor, i64 8
  %0 = load ptr, ptr %all_names_.i, align 8
  %call2 = tail call { i64, ptr } @_ZNKSt7__cxx1112basic_stringIcSt11char_traitsIcESaIcEEcvSt17basic_string_viewIcS2_EEv(ptr noundef nonnull align 8 dereferenceable(32) %0) #18
  %1 = extractvalue { i64, ptr } %call2, 0
  %2 = extractvalue { i64, ptr } %call2, 1
  call void @_ZN6google8protobuf8compiler4java11ToCamelCaseB5cxx11ESt17basic_string_viewIcSt11char_traitsIcEEb(ptr nonnull sret(%"class.std::__cxx11::basic_string") align 8 %name, i64 %1, ptr %2, i1 noundef zeroext true)
  %call4 = call { i64, ptr } @_ZNKSt7__cxx1112basic_stringIcSt11char_traitsIcESaIcEEcvSt17basic_string_viewIcS2_EEv(ptr noundef nonnull align 8 dereferenceable(32) %name) #18
  %3 = extractvalue { i64, ptr } %call4, 0
  %4 = extractvalue { i64, ptr } %call4, 1
  %call5 = invoke noundef zeroext i1 @_ZN6google8protobuf8compiler4java17IsForbiddenKotlinESt17basic_string_viewIcSt11char_traitsIcEE(i64 %3, ptr %4)
          to label %invoke.cont unwind label %lpad

invoke.cont:                                      ; preds = %entry
  br i1 %call5, label %invoke.cont8, label %cond.false

invoke.cont8:                                     ; preds = %invoke.cont
  %call.i = call { i64, ptr } @_ZNKSt7__cxx1112basic_stringIcSt11char_traitsIcESaIcEEcvSt17basic_string_viewIcS2_EEv(ptr noundef nonnull align 8 dereferenceable(32) %name) #18
  %5 = extractvalue { i64, ptr } %call.i, 0
  store i64 %5, ptr %ref.tmp, align 8
  %6 = getelementptr inbounds nuw i8, ptr %ref.tmp, i64 8
  %7 = extractvalue { i64, ptr } %call.i, 1
  store ptr %7, ptr %6, align 8
  store i64 1, ptr %ref.tmp7, align 8
  %8 = getelementptr inbounds nuw i8, ptr %ref.tmp7, i64 8
  store ptr @.str.5, ptr %8, align 8
  invoke void @_ZN4absl12lts_202308026StrCatB5cxx11ERKNS0_8AlphaNumES3_(ptr sret(%"class.std::__cxx11::basic_string") align 8 %agg.result, ptr noundef nonnull align 8 dereferenceable(48) %ref.tmp, ptr noundef nonnull align 8 dereferenceable(48) %ref.tmp7)
          to label %cond.end unwind label %lpad

cond.false:                                       ; preds = %invoke.cont
  invoke void @_ZNSt7__cxx1112basic_stringIcSt11char_traitsIcESaIcEEC1ERKS4_(ptr noundef nonnull align 8 dereferenceable(32) %agg.result, ptr noundef nonnull align 8 dereferenceable(32) %name)
          to label %cond.end unwind label %lpad

cond.end:                                         ; preds = %cond.false, %invoke.cont8
  call void @_ZNSt7__cxx1112basic_stringIcSt11char_traitsIcESaIcEED1Ev(ptr noundef nonnull align 8 dereferenceable(32) %name) #18
  ret void

lpad:                                             ; preds = %cond.false, %invoke.cont8, %entry
  %9 = landingpad { ptr, i32 }
          cleanup
  call void @_ZNSt7__cxx1112basic_stringIcSt11char_traitsIcESaIcEED1Ev(ptr noundef nonnull align 8 dereferenceable(32) %name) #18
  resume { ptr, i32 } %9
}